target datalayout = "e-m:e-p270:32:32-p271:32:32-p272:64:64-i64:64-i128:128-f80:128-n8:16:32:64-S128"
target triple = "x86_64-pc-linux-gnu"

%struct.xdiff_emit_state = type { ptr, ptr, ptr, %struct.strbuf }
%struct.strbuf = type { i64, i64, ptr }

@.str.6 = private unnamed_addr constant [18 x i8] c"xdiff-interface.c\00", align 1
@.str.15 = private unnamed_addr constant [43 x i8] c"xdiff emitted hunk in the middle of a line\00", align 1

; Function Attrs: nounwind uwtable
define internal i32 @xdiff_out_hunk(ptr noundef %0, i64 noundef %1, i64 noundef %2, i64 noundef %3, i64 noundef %4, ptr noundef %5, i64 noundef %6) #0 {
  %8 = alloca ptr, align 8
  %9 = alloca i64, align 8
  %10 = alloca i64, align 8
  %11 = alloca i64, align 8
  %12 = alloca i64, align 8
  %13 = alloca ptr, align 8
  %14 = alloca i64, align 8
  %15 = alloca ptr, align 8
  store ptr %0, ptr %8, align 8, !tbaa !32
  store i64 %1, ptr %9, align 8, !tbaa !18
  store i64 %2, ptr %10, align 8, !tbaa !18
  store i64 %3, ptr %11, align 8, !tbaa !18
  store i64 %4, ptr %12, align 8, !tbaa !18
  store ptr %5, ptr %13, align 8, !tbaa !16
  store i64 %6, ptr %14, align 8, !tbaa !18
  call void @llvm.lifetime.start.p0(i64 8, ptr %15) #9
  %16 = load ptr, ptr %8, align 8, !tbaa !32
  store ptr %16, ptr %15, align 8, !tbaa !42
  %17 = load ptr, ptr %15, align 8, !tbaa !42
  %18 = getelementptr inbounds nuw %struct.xdiff_emit_state, ptr %17, i32 0, i32 3
  %19 = getelementptr inbounds nuw %struct.strbuf, ptr %18, i32 0, i32 1
  %20 = load i64, ptr %19, align 8, !tbaa !44
  %21 = icmp ne i64 %20, 0
  br i1 %21, label %22, label %23

22:                                               ; preds = %7
  call void (ptr, i32, ptr, ...) @BUG_fl(ptr noundef @.str.6, i32 noundef 30, ptr noundef @.str.15) #11
  unreachable

23:                                               ; preds = %7
  %24 = load ptr, ptr %15, align 8, !tbaa !42
  %25 = getelementptr inbounds nuw %struct.xdiff_emit_state, ptr %24, i32 0, i32 0
  %26 = load ptr, ptr %25, align 8, !tbaa !33
  %27 = load ptr, ptr %15, align 8, !tbaa !42
  %28 = getelementptr inbounds nuw %struct.xdiff_emit_state, ptr %27, i32 0, i32 2
  %29 = load ptr, ptr %28, align 8, !tbaa !37
  %30 = load i64, ptr %9, align 8, !tbaa !18
  %31 = load i64, ptr %10, align 8, !tbaa !18
  %32 = load i64, ptr %11, align 8, !tbaa !18
  %33 = load i64, ptr %12, align 8, !tbaa !18
  %34 = load ptr, ptr %13, align 8, !tbaa !16
  %35 = load i64, ptr %14, align 8, !tbaa !18
  call void %26(ptr noundef %29, i64 noundef %30, i64 noundef %31, i64 noundef %32, i64 noundef %33, ptr noundef %34, i64 noundef %35)
  call void @llvm.lifetime.end.p0(i64 8, ptr %15) #9
  ret i32 0
}