; Function Attrs: nounwind uwtable
define internal noundef i32 @xdiff_out_hunk(ptr noundef readonly captures(none) %0, i64 noundef %1, i64 noundef %2, i64 noundef %3, i64 noundef %4, ptr noundef %5, i64 noundef %6) #0 {
  %8 = getelementptr inbounds nuw i8, ptr %0, i64 32
  %9 = load i64, ptr %8, align 8, !tbaa !31
  %.not = icmp eq i64 %9, 0
  br i1 %.not, label %11, label %10

10:                                               ; preds = %7
  tail call void (ptr, i32, ptr, ...) @BUG_fl(ptr noundef nonnull @.str.6, i32 noundef 30, ptr noundef nonnull @.str.15) #14
  unreachable

11:                                               ; preds = %7
  %12 = load ptr, ptr %0, align 8, !tbaa !22
  %13 = getelementptr inbounds nuw i8, ptr %0, i64 16
  %14 = load ptr, ptr %13, align 8, !tbaa !26
  tail call void %12(ptr noundef %14, i64 noundef %1, i64 noundef %2, i64 noundef %3, i64 noundef %4, ptr noundef %5, i64 noundef %6) #13
  ret i32 0
}